LIBRARY	"WSOCK32"
EXPORTS
	accept							= ?ex_accept@@YGXXZ										@1			PRIVATE
	bind							= ?ex_bind@@YGXXZ										@2			PRIVATE
	closesocket						= ?ex_closesocket@@YGXXZ								@3			PRIVATE
	connect							= ?ex_connect@@YGXXZ									@4			PRIVATE
	getpeername						= ?ex_getpeername@@YGXXZ								@5			PRIVATE
	getsockname						= ?ex_getsockname@@YGXXZ								@6			PRIVATE
	getsockopt						= ?ex_getsockopt@@YGXXZ									@7			PRIVATE
	htonl							= ?ex_htonl@@YGXXZ										@8			PRIVATE
	htons							= ?ex_htons@@YGXXZ										@9			PRIVATE
	inet_addr						= ?ex_inet_addr@@YGXXZ									@10			PRIVATE
	inet_ntoa						= ?ex_inet_ntoa@@YGXXZ									@11			PRIVATE
	ioctlsocket						= ?ex_ioctlsocket@@YGXXZ								@12			PRIVATE
	listen							= ?ex_listen@@YGXXZ										@13			PRIVATE
	ntohl							= ?ex_ntohl@@YGXXZ										@14			PRIVATE
	ntohs							= ?ex_ntohs@@YGXXZ										@15			PRIVATE
	recv							= ?ex_recv@@YGXXZ										@16			PRIVATE
	recvfrom						= ?ex_recvfrom@@YGXXZ									@17			PRIVATE
	select							= ?ex_select@@YGXXZ										@18			PRIVATE
	send							= ?ex_send@@YGXXZ										@19			PRIVATE
	sendto							= ?ex_sendto@@YGXXZ										@20			PRIVATE
	setsockopt						= ?ex_setsockopt@@YGXXZ									@21			PRIVATE
	shutdown						= ?ex_shutdown@@YGXXZ									@22			PRIVATE
	socket							= ?ex_socket@@YGXXZ										@23			PRIVATE
	MigrateWinsockConfiguration		= ?ex_MigrateWinsockConfiguration@@YGXXZ				@24			PRIVATE
	gethostbyaddr					= ?ex_gethostbyaddr@@YGXXZ								@51			PRIVATE
	gethostbyname					= ?ex_gethostbyname@@YGXXZ								@52			PRIVATE
	getprotobyname					= ?ex_getprotobyname@@YGXXZ								@53			PRIVATE
	getprotobynumber				= ?ex_getprotobynumber@@YGXXZ							@54			PRIVATE
	getservbyname					= ?ex_getservbyname@@YGXXZ								@55			PRIVATE
	getservbyport					= ?ex_getservbyport@@YGXXZ								@56			PRIVATE
	gethostname						= ?ex_gethostname@@YGXXZ								@57			PRIVATE
	WSAAsyncSelect					= ?ex_WSAAsyncSelect@@YGXXZ								@101		PRIVATE
	WSAAsyncGetHostByAddr			= ?ex_WSAAsyncGetHostByAddr@@YGXXZ						@102		PRIVATE
	WSAAsyncGetHostByName			= ?ex_WSAAsyncGetHostByName@@YGXXZ						@103		PRIVATE
	WSAAsyncGetProtoByNumber		= ?ex_WSAAsyncGetProtoByNumber@@YGXXZ					@104		PRIVATE
	WSAAsyncGetProtoByName			= ?ex_WSAAsyncGetProtoByName@@YGXXZ						@105		PRIVATE
	WSAAsyncGetServByPort			= ?ex_WSAAsyncGetServByPort@@YGXXZ						@106		PRIVATE
	WSAAsyncGetServByName			= ?ex_WSAAsyncGetServByName@@YGXXZ						@107		PRIVATE
	WSACancelAsyncRequest			= ?ex_WSACancelAsyncRequest@@YGXXZ						@108		PRIVATE
	WSASetBlockingHook				= ?ex_WSASetBlockingHook@@YGXXZ							@109		PRIVATE
	WSAUnhookBlockingHook			= ?ex_WSAUnhookBlockingHook@@YGXXZ						@110		PRIVATE
	WSAGetLastError					= ?ex_WSAGetLastError@@YGXXZ							@111		PRIVATE
	WSASetLastError					= ?ex_WSASetLastError@@YGXXZ							@112		PRIVATE
	WSACancelBlockingCall			= ?ex_WSACancelBlockingCall@@YGXXZ						@113		PRIVATE
	WSAIsBlocking					= ?ex_WSAIsBlocking@@YGXXZ								@114		PRIVATE
	WSAStartup						= ?ex_WSAStartup@@YGXXZ									@115		PRIVATE
	WSACleanup						= ?ex_WSACleanup@@YGXXZ									@116		PRIVATE
	__WSAFDIsSet					= ?ex_WSAFDIsSet@@YGXXZ									@151		PRIVATE
	WEP								= ?ex_WEP@@YGXXZ										@500		PRIVATE
	WSApSetPostRoutine				= ?ex_WSApSetPostRoutine@@YGXXZ							@1000		PRIVATE
	inet_network					= ?ex_inet_network@@YGXXZ								@1100		PRIVATE
	getnetbyname					= ?ex_getnetbyname@@YGXXZ								@1101		PRIVATE
	rcmd							= ?ex_rcmd@@YGXXZ										@1102		PRIVATE
	rexec							= ?ex_rexec@@YGXXZ										@1103		PRIVATE
	rresvport						= ?ex_rresvport@@YGXXZ									@1104		PRIVATE
	sethostname						= ?ex_sethostname@@YGXXZ								@1105		PRIVATE
	dn_expand						= ?ex_dn_expand@@YGXXZ									@1106		PRIVATE
	WSARecvEx						= ?ex_WSARecvEx@@YGXXZ									@1107		PRIVATE
	s_perror						= ?ex_s_perror@@YGXXZ									@1108		PRIVATE
	GetAddressByNameA				= ?ex_GetAddressByNameA@@YGXXZ							@1109		PRIVATE
	GetAddressByNameW				= ?ex_GetAddressByNameW@@YGXXZ							@1110		PRIVATE
	EnumProtocolsA					= ?ex_EnumProtocolsA@@YGXXZ								@1111		PRIVATE
	EnumProtocolsW					= ?ex_EnumProtocolsW@@YGXXZ								@1112		PRIVATE
	GetTypeByNameA					= ?ex_GetTypeByNameA@@YGXXZ								@1113		PRIVATE
	GetTypeByNameW					= ?ex_GetTypeByNameW@@YGXXZ								@1114		PRIVATE
	GetNameByTypeA					= ?ex_GetNameByTypeA@@YGXXZ								@1115		PRIVATE
	GetNameByTypeW					= ?ex_GetNameByTypeW@@YGXXZ								@1116		PRIVATE
	SetServiceA						= ?ex_SetServiceA@@YGXXZ								@1117		PRIVATE
	SetServiceW						= ?ex_SetServiceW@@YGXXZ								@1118		PRIVATE
	GetServiceA						= ?ex_GetServiceA@@YGXXZ								@1119		PRIVATE
	GetServiceW						= ?ex_GetServiceW@@YGXXZ								@1120		PRIVATE
	NPLoadNameSpaces				= ?ex_NPLoadNameSpaces@@YGXXZ							@1130		PRIVATE
	TransmitFile					= ?ex_TransmitFile@@YGXXZ								@1140		PRIVATE
	AcceptEx						= ?ex_AcceptEx@@YGXXZ									@1141		PRIVATE
	GetAcceptExSockaddrs			= ?ex_GetAcceptExSockaddrs@@YGXXZ						@1142		PRIVATE